; Function Attrs: mustprogress uwtable
define hidden noundef zeroext i1 @_ZN11OpenImageIO6v3_1_08PNMInput4openERKNSt7__cxx1112basic_stringIcSt11char_traitsIcESaIcEEERNS0_9ImageSpecERKSA_(ptr noundef nonnull align 8 dereferenceable(264) %0, ptr noundef nonnull align 8 dereferenceable(32) %1, ptr noundef nonnull align 8 dereferenceable(160) %2, ptr noundef nonnull align 8 dereferenceable(160) %3) unnamed_addr #5 align 2 personality ptr @__gxx_personality_v0 {
  %5 = alloca %"class.OpenImageIO::v3_1_0::basic_string_view", align 8
  tail call void @_ZN11OpenImageIO6v3_1_010ImageInput28ioproxy_retrieve_from_configERKNS0_9ImageSpecE(ptr noundef nonnull align 8 dereferenceable(184) %0, ptr noundef nonnull align 8 dereferenceable(160) %3)
  %6 = tail call noundef zeroext i1 @_ZN11OpenImageIO6v3_1_08PNMInput4openERKNSt7__cxx1112basic_stringIcSt11char_traitsIcESaIcEEERNS0_9ImageSpecE(ptr noundef nonnull align 8 dereferenceable(264) %0, ptr noundef nonnull align 8 dereferenceable(32) %1, ptr noundef nonnull align 8 dereferenceable(160) %2)
  br i1 %6, label %8, label %7

7:                                                ; preds = %4
  tail call void @_ZNK11OpenImageIO6v3_1_010ImageInput8errorfmtIJNSt7__cxx1112basic_stringIcSt11char_traitsIcESaIcEEEEEEvPKcDpRKT_(ptr noundef nonnull align 8 dereferenceable(184) %0, ptr noundef nonnull @.str.10, ptr noundef nonnull align 8 dereferenceable(32) %1)
  br label %14

8:                                                ; preds = %4
  store ptr @.str.11, ptr %5, align 8, !tbaa !66
  %9 = getelementptr inbounds nuw i8, ptr %5, i64 8
  store i64 11, ptr %9, align 8, !tbaa !62
  %10 = call noundef i32 @_ZNK11OpenImageIO6v3_1_09ImageSpec17get_int_attributeENS0_17basic_string_viewIcSt11char_traitsIcEEEi(ptr noundef nonnull align 8 dereferenceable(160) %3, ptr noundef nonnull %5, i32 noundef 1)
  %11 = icmp ne i32 %10, 0
  %12 = getelementptr inbounds nuw i8, ptr %0, i64 260
  %13 = zext i1 %11 to i8
  store i8 %13, ptr %12, align 4, !tbaa !57
  br label %14

14:                                               ; preds = %8, %7
  ret i1 %6
}